; Function Attrs: mustprogress nofree norecurse nosync nounwind sspstrong willreturn memory(argmem: readwrite) uwtable
define internal void @of_dpa_ig_port_build_match(ptr noundef readonly captures(none) %fc, ptr noundef writeonly captures(none) initializes((0, 4), (8, 12), (104, 108)) %match) #9 {
entry:
  %tbl_id = getelementptr inbounds nuw i8, ptr %match, i64 8
  store i32 0, ptr %tbl_id, align 8
  %0 = load i32, ptr %fc, align 8
  store i32 %0, ptr %match, align 8
  %width = getelementptr inbounds nuw i8, ptr %match, i64 104
  store i32 2, ptr %width, align 8
  ret void
}